; Function Attrs: nounwind uwtable
define noalias nonnull ptr @l_Lean_Compiler_LCNF_instInhabitedPassInstaller___boxed(ptr noundef %0, ptr noundef %1, ptr noundef %2, ptr noundef %3) local_unnamed_addr #1 {
  tail call void @lean_inc_heartbeat() #6
  %5 = tail call noalias ptr @mi_malloc_small(i64 noundef 24) #6
  %6 = icmp eq ptr %5, null
  br i1 %6, label %7, label %l_Lean_Compiler_LCNF_instInhabitedPassInstaller.exit

7:                                                ; preds = %4
  tail call void @lean_internal_panic_out_of_memory() #7
  unreachable

l_Lean_Compiler_LCNF_instInhabitedPassInstaller.exit: ; preds = %4
  %8 = getelementptr inbounds nuw i8, ptr %5, i64 4
  store i32 1, ptr %5, align 4, !tbaa !4
  store i32 131096, ptr %8, align 4
  %9 = getelementptr inbounds nuw i8, ptr %5, i64 8
  store ptr %0, ptr %9, align 8, !tbaa !10
  %10 = getelementptr inbounds nuw i8, ptr %5, i64 16
  store ptr %3, ptr %10, align 8, !tbaa !10
  %11 = ptrtoint ptr %2 to i64
  %12 = and i64 %11, 1
  %.not = icmp eq i64 %12, 0
  br i1 %.not, label %13, label %lean_dec.exit7

13:                                               ; preds = %l_Lean_Compiler_LCNF_instInhabitedPassInstaller.exit
  %14 = load i32, ptr %2, align 4, !tbaa !4
  %15 = icmp sgt i32 %14, 1
  br i1 %15, label %16, label %18, !prof !9

16:                                               ; preds = %13
  %17 = add nsw i32 %14, -1
  store i32 %17, ptr %2, align 4, !tbaa !4
  br label %lean_dec.exit7

18:                                               ; preds = %13
  %.not.i = icmp eq i32 %14, 0
  br i1 %.not.i, label %lean_dec.exit7, label %19

19:                                               ; preds = %18
  tail call void @lean_dec_ref_cold(ptr noundef nonnull %2) #6
  br label %lean_dec.exit7

lean_dec.exit7:                                   ; preds = %19, %18, %16, %l_Lean_Compiler_LCNF_instInhabitedPassInstaller.exit
  %20 = ptrtoint ptr %1 to i64
  %21 = and i64 %20, 1
  %.not10 = icmp eq i64 %21, 0
  br i1 %.not10, label %22, label %lean_dec.exit

22:                                               ; preds = %lean_dec.exit7
  %23 = load i32, ptr %1, align 4, !tbaa !4
  %24 = icmp sgt i32 %23, 1
  br i1 %24, label %25, label %27, !prof !9

25:                                               ; preds = %22
  %26 = add nsw i32 %23, -1
  store i32 %26, ptr %1, align 4, !tbaa !4
  br label %lean_dec.exit

27:                                               ; preds = %22
  %.not.i8 = icmp eq i32 %23, 0
  br i1 %.not.i8, label %lean_dec.exit, label %28

28:                                               ; preds = %27
  tail call void @lean_dec_ref_cold(ptr noundef nonnull %1) #6
  br label %lean_dec.exit

lean_dec.exit:                                    ; preds = %28, %27, %25, %lean_dec.exit7
  ret ptr %5
}